target datalayout = "e-m:e-p270:32:32-p271:32:32-p272:64:64-i64:64-i128:128-f80:128-n8:16:32:64-S128"
target triple = "x86_64-pc-linux-gnu"

%struct.hwloc_xml_backend_data_s = type { ptr, ptr, ptr, ptr, ptr, ptr, ptr, ptr, ptr, ptr, ptr, i32, i32, i8, i8, i8, i8, i8, i8 }
%struct.hwloc__xml_import_state_s = type { ptr, ptr, [32 x i8] }
%struct._xmlDtd = type { ptr, i32, ptr, ptr, ptr, ptr, ptr, ptr, ptr, ptr, ptr, ptr, ptr, ptr, ptr, ptr }
%struct._xmlNode = type { ptr, i32, ptr, ptr, ptr, ptr, ptr, ptr, ptr, ptr, ptr, ptr, ptr, ptr, i16, i16 }
%struct.hwloc__libxml_import_state_data_s = type { ptr, ptr, ptr }

@stderr = external global ptr, align 8
@.str.4 = private unnamed_addr constant [38 x i8] c"%s: Loading XML topology without DTD\0A\00", align 1
@.str.5 = private unnamed_addr constant [11 x i8] c"hwloc2.dtd\00", align 1
@.str.6 = private unnamed_addr constant [69 x i8] c"%s: Loading XML topology with wrong DTD SystemID (%s instead of %s)\0A\00", align 1
@.str.7 = private unnamed_addr constant [5 x i8] c"root\00", align 1
@.str.8 = private unnamed_addr constant [9 x i8] c"topology\00", align 1
@.str.9 = private unnamed_addr constant [8 x i8] c"version\00", align 1
@.str.10 = private unnamed_addr constant [6 x i8] c"%u.%u\00", align 1
@xmlFree = external global ptr, align 8
@.str.11 = private unnamed_addr constant [68 x i8] c"%s: ignoring object of class `%s' not at the top the xml hierarchy\0A\00", align 1

; Function Attrs: nounwind uwtable
define internal i32 @hwloc_libxml_look_init(ptr noundef %0, ptr noundef %1) #0 {
  %3 = alloca i32, align 4
  %4 = alloca ptr, align 8
  %5 = alloca ptr, align 8
  %6 = alloca ptr, align 8
  %7 = alloca ptr, align 8
  %8 = alloca ptr, align 8
  %9 = alloca i32, align 4
  %10 = alloca i32, align 4
  %11 = alloca ptr, align 8
  %12 = alloca i32, align 4
  store ptr %0, ptr %4, align 8, !tbaa !10
  store ptr %1, ptr %5, align 8, !tbaa !30
  call void @llvm.lifetime.start.p0(i64 8, ptr %6) #7
  %13 = load ptr, ptr %5, align 8, !tbaa !30
  %14 = getelementptr inbounds nuw %struct.hwloc__xml_import_state_s, ptr %13, i32 0, i32 2
  %15 = getelementptr inbounds [32 x i8], ptr %14, i64 0, i64 0
  store ptr %15, ptr %6, align 8, !tbaa !34
  call void @llvm.lifetime.start.p0(i64 8, ptr %7) #7
  call void @llvm.lifetime.start.p0(i64 8, ptr %8) #7
  %16 = load ptr, ptr %4, align 8, !tbaa !10
  %17 = getelementptr inbounds nuw %struct.hwloc_xml_backend_data_s, ptr %16, i32 0, i32 10
  %18 = load ptr, ptr %17, align 8, !tbaa !20
  %19 = call ptr @xmlGetIntSubset(ptr noundef %18)
  store ptr %19, ptr %8, align 8, !tbaa !36
  %20 = load ptr, ptr %8, align 8, !tbaa !36
  %21 = icmp ne ptr %20, null
  br i1 %21, label %34, label %22

22:                                               ; preds = %2
  %23 = call i32 @hwloc__xml_verbose()
  %24 = icmp ne i32 %23, 0
  br i1 %24, label %25, label %33

25:                                               ; preds = %22
  %26 = load ptr, ptr @stderr, align 8, !tbaa !38
  %27 = load ptr, ptr %5, align 8, !tbaa !30
  %28 = getelementptr inbounds nuw %struct.hwloc__xml_import_state_s, ptr %27, i32 0, i32 1
  %29 = load ptr, ptr %28, align 8, !tbaa !40
  %30 = getelementptr inbounds nuw %struct.hwloc_xml_backend_data_s, ptr %29, i32 0, i32 9
  %31 = load ptr, ptr %30, align 8, !tbaa !42
  %32 = call i32 (ptr, ptr, ...) @fprintf(ptr noundef %26, ptr noundef @.str.4, ptr noundef %31) #7
  br label %33

33:                                               ; preds = %25, %22
  br label %56

34:                                               ; preds = %2
  %35 = load ptr, ptr %8, align 8, !tbaa !36
  %36 = getelementptr inbounds nuw %struct._xmlDtd, ptr %35, i32 0, i32 14
  %37 = load ptr, ptr %36, align 8, !tbaa !43
  %38 = call i32 @strcmp(ptr noundef %37, ptr noundef @.str.5) #9
  %39 = icmp ne i32 %38, 0
  br i1 %39, label %40, label %55

40:                                               ; preds = %34
  %41 = call i32 @hwloc__xml_verbose()
  %42 = icmp ne i32 %41, 0
  br i1 %42, label %43, label %54

43:                                               ; preds = %40
  %44 = load ptr, ptr @stderr, align 8, !tbaa !38
  %45 = load ptr, ptr %5, align 8, !tbaa !30
  %46 = getelementptr inbounds nuw %struct.hwloc__xml_import_state_s, ptr %45, i32 0, i32 1
  %47 = load ptr, ptr %46, align 8, !tbaa !40
  %48 = getelementptr inbounds nuw %struct.hwloc_xml_backend_data_s, ptr %47, i32 0, i32 9
  %49 = load ptr, ptr %48, align 8, !tbaa !42
  %50 = load ptr, ptr %8, align 8, !tbaa !36
  %51 = getelementptr inbounds nuw %struct._xmlDtd, ptr %50, i32 0, i32 14
  %52 = load ptr, ptr %51, align 8, !tbaa !43
  %53 = call i32 (ptr, ptr, ...) @fprintf(ptr noundef %44, ptr noundef @.str.6, ptr noundef %49, ptr noundef %52, ptr noundef @.str.5) #7
  br label %54

54:                                               ; preds = %43, %40
  br label %55

55:                                               ; preds = %54, %34
  br label %56

56:                                               ; preds = %55, %33
  %57 = load ptr, ptr %4, align 8, !tbaa !10
  %58 = getelementptr inbounds nuw %struct.hwloc_xml_backend_data_s, ptr %57, i32 0, i32 10
  %59 = load ptr, ptr %58, align 8, !tbaa !20
  %60 = call ptr @xmlDocGetRootElement(ptr noundef %59)
  store ptr %60, ptr %7, align 8, !tbaa !46
  %61 = load ptr, ptr %7, align 8, !tbaa !46
  %62 = getelementptr inbounds nuw %struct._xmlNode, ptr %61, i32 0, i32 2
  %63 = load ptr, ptr %62, align 8, !tbaa !47
  %64 = call i32 @strcmp(ptr noundef %63, ptr noundef @.str.7) #9
  %65 = icmp ne i32 %64, 0
  br i1 %65, label %71, label %66

66:                                               ; preds = %56
  %67 = load ptr, ptr %4, align 8, !tbaa !10
  %68 = getelementptr inbounds nuw %struct.hwloc_xml_backend_data_s, ptr %67, i32 0, i32 11
  store i32 0, ptr %68, align 8, !tbaa !63
  %69 = load ptr, ptr %4, align 8, !tbaa !10
  %70 = getelementptr inbounds nuw %struct.hwloc_xml_backend_data_s, ptr %69, i32 0, i32 12
  store i32 9, ptr %70, align 4, !tbaa !64
  br label %117

71:                                               ; preds = %56
  %72 = load ptr, ptr %7, align 8, !tbaa !46
  %73 = getelementptr inbounds nuw %struct._xmlNode, ptr %72, i32 0, i32 2
  %74 = load ptr, ptr %73, align 8, !tbaa !47
  %75 = call i32 @strcmp(ptr noundef %74, ptr noundef @.str.8) #9
  %76 = icmp ne i32 %75, 0
  br i1 %76, label %101, label %77

77:                                               ; preds = %71
  call void @llvm.lifetime.start.p0(i64 4, ptr %9) #7
  call void @llvm.lifetime.start.p0(i64 4, ptr %10) #7
  call void @llvm.lifetime.start.p0(i64 8, ptr %11) #7
  %78 = load ptr, ptr %7, align 8, !tbaa !46
  %79 = call ptr @xmlGetProp(ptr noundef %78, ptr noundef @.str.9)
  store ptr %79, ptr %11, align 8, !tbaa !7
  %80 = load ptr, ptr %11, align 8, !tbaa !7
  %81 = icmp ne ptr %80, null
  br i1 %81, label %82, label %93

82:                                               ; preds = %77
  %83 = load ptr, ptr %11, align 8, !tbaa !7
  %84 = call i32 (ptr, ptr, ...) @__isoc99_sscanf(ptr noundef %83, ptr noundef @.str.10, ptr noundef %9, ptr noundef %10) #7
  %85 = icmp eq i32 %84, 2
  br i1 %85, label %86, label %93

86:                                               ; preds = %82
  %87 = load i32, ptr %9, align 4, !tbaa !12
  %88 = load ptr, ptr %4, align 8, !tbaa !10
  %89 = getelementptr inbounds nuw %struct.hwloc_xml_backend_data_s, ptr %88, i32 0, i32 11
  store i32 %87, ptr %89, align 8, !tbaa !63
  %90 = load i32, ptr %10, align 4, !tbaa !12
  %91 = load ptr, ptr %4, align 8, !tbaa !10
  %92 = getelementptr inbounds nuw %struct.hwloc_xml_backend_data_s, ptr %91, i32 0, i32 12
  store i32 %90, ptr %92, align 4, !tbaa !64
  br label %98

93:                                               ; preds = %82, %77
  %94 = load ptr, ptr %4, align 8, !tbaa !10
  %95 = getelementptr inbounds nuw %struct.hwloc_xml_backend_data_s, ptr %94, i32 0, i32 11
  store i32 1, ptr %95, align 8, !tbaa !63
  %96 = load ptr, ptr %4, align 8, !tbaa !10
  %97 = getelementptr inbounds nuw %struct.hwloc_xml_backend_data_s, ptr %96, i32 0, i32 12
  store i32 0, ptr %97, align 4, !tbaa !64
  br label %98

98:                                               ; preds = %93, %86
  %99 = load ptr, ptr @xmlFree, align 8, !tbaa !29
  %100 = load ptr, ptr %11, align 8, !tbaa !7
  call void %99(ptr noundef %100)
  call void @llvm.lifetime.end.p0(i64 8, ptr %11) #7
  call void @llvm.lifetime.end.p0(i64 4, ptr %10) #7
  call void @llvm.lifetime.end.p0(i64 4, ptr %9) #7
  br label %116

101:                                              ; preds = %71
  %102 = call i32 @hwloc__xml_verbose()
  %103 = icmp ne i32 %102, 0
  br i1 %103, label %104, label %115

104:                                              ; preds = %101
  %105 = load ptr, ptr @stderr, align 8, !tbaa !38
  %106 = load ptr, ptr %5, align 8, !tbaa !30
  %107 = getelementptr inbounds nuw %struct.hwloc__xml_import_state_s, ptr %106, i32 0, i32 1
  %108 = load ptr, ptr %107, align 8, !tbaa !40
  %109 = getelementptr inbounds nuw %struct.hwloc_xml_backend_data_s, ptr %108, i32 0, i32 9
  %110 = load ptr, ptr %109, align 8, !tbaa !42
  %111 = load ptr, ptr %7, align 8, !tbaa !46
  %112 = getelementptr inbounds nuw %struct._xmlNode, ptr %111, i32 0, i32 2
  %113 = load ptr, ptr %112, align 8, !tbaa !47
  %114 = call i32 (ptr, ptr, ...) @fprintf(ptr noundef %105, ptr noundef @.str.11, ptr noundef %110, ptr noundef %113) #7
  br label %115

115:                                              ; preds = %104, %101
  br label %154

116:                                              ; preds = %98
  br label %117

117:                                              ; preds = %116, %66
  %118 = load ptr, ptr %5, align 8, !tbaa !30
  %119 = getelementptr inbounds nuw %struct.hwloc__xml_import_state_s, ptr %118, i32 0, i32 1
  %120 = load ptr, ptr %119, align 8, !tbaa !40
  %121 = getelementptr inbounds nuw %struct.hwloc_xml_backend_data_s, ptr %120, i32 0, i32 3
  store ptr @hwloc__libxml_import_next_attr, ptr %121, align 8, !tbaa !52
  %122 = load ptr, ptr %5, align 8, !tbaa !30
  %123 = getelementptr inbounds nuw %struct.hwloc__xml_import_state_s, ptr %122, i32 0, i32 1
  %124 = load ptr, ptr %123, align 8, !tbaa !40
  %125 = getelementptr inbounds nuw %struct.hwloc_xml_backend_data_s, ptr %124, i32 0, i32 4
  store ptr @hwloc__libxml_import_find_child, ptr %125, align 8, !tbaa !53
  %126 = load ptr, ptr %5, align 8, !tbaa !30
  %127 = getelementptr inbounds nuw %struct.hwloc__xml_import_state_s, ptr %126, i32 0, i32 1
  %128 = load ptr, ptr %127, align 8, !tbaa !40
  %129 = getelementptr inbounds nuw %struct.hwloc_xml_backend_data_s, ptr %128, i32 0, i32 5
  store ptr @hwloc__libxml_import_close_tag, ptr %129, align 8, !tbaa !54
  %130 = load ptr, ptr %5, align 8, !tbaa !30
  %131 = getelementptr inbounds nuw %struct.hwloc__xml_import_state_s, ptr %130, i32 0, i32 1
  %132 = load ptr, ptr %131, align 8, !tbaa !40
  %133 = getelementptr inbounds nuw %struct.hwloc_xml_backend_data_s, ptr %132, i32 0, i32 6
  store ptr @hwloc__libxml_import_close_child, ptr %133, align 8, !tbaa !55
  %134 = load ptr, ptr %5, align 8, !tbaa !30
  %135 = getelementptr inbounds nuw %struct.hwloc__xml_import_state_s, ptr %134, i32 0, i32 1
  %136 = load ptr, ptr %135, align 8, !tbaa !40
  %137 = getelementptr inbounds nuw %struct.hwloc_xml_backend_data_s, ptr %136, i32 0, i32 7
  store ptr @hwloc__libxml_import_get_content, ptr %137, align 8, !tbaa !56
  %138 = load ptr, ptr %5, align 8, !tbaa !30
  %139 = getelementptr inbounds nuw %struct.hwloc__xml_import_state_s, ptr %138, i32 0, i32 1
  %140 = load ptr, ptr %139, align 8, !tbaa !40
  %141 = getelementptr inbounds nuw %struct.hwloc_xml_backend_data_s, ptr %140, i32 0, i32 8
  store ptr @hwloc__libxml_import_close_content, ptr %141, align 8, !tbaa !57
  %142 = load ptr, ptr %5, align 8, !tbaa !30
  %143 = getelementptr inbounds nuw %struct.hwloc__xml_import_state_s, ptr %142, i32 0, i32 0
  store ptr null, ptr %143, align 8, !tbaa !58
  %144 = load ptr, ptr %7, align 8, !tbaa !46
  %145 = load ptr, ptr %6, align 8, !tbaa !34
  %146 = getelementptr inbounds nuw %struct.hwloc__libxml_import_state_data_s, ptr %145, i32 0, i32 0
  store ptr %144, ptr %146, align 8, !tbaa !59
  %147 = load ptr, ptr %7, align 8, !tbaa !46
  %148 = getelementptr inbounds nuw %struct._xmlNode, ptr %147, i32 0, i32 3
  %149 = load ptr, ptr %148, align 8, !tbaa !60
  %150 = load ptr, ptr %6, align 8, !tbaa !34
  %151 = getelementptr inbounds nuw %struct.hwloc__libxml_import_state_data_s, ptr %150, i32 0, i32 1
  store ptr %149, ptr %151, align 8, !tbaa !59
  %152 = load ptr, ptr %6, align 8, !tbaa !34
  %153 = getelementptr inbounds nuw %struct.hwloc__libxml_import_state_data_s, ptr %152, i32 0, i32 2
  store ptr null, ptr %153, align 8, !tbaa !59
  store i32 0, ptr %3, align 4
  store i32 1, ptr %12, align 4
  br label %155

154:                                              ; preds = %115
  store i32 -1, ptr %3, align 4
  store i32 1, ptr %12, align 4
  br label %155

155:                                              ; preds = %154, %117
  call void @llvm.lifetime.end.p0(i64 8, ptr %8) #7
  call void @llvm.lifetime.end.p0(i64 8, ptr %7) #7
  call void @llvm.lifetime.end.p0(i64 8, ptr %6) #7
  %156 = load i32, ptr %3, align 4
  ret i32 %156
}