; Function Attrs: nounwind uwtable
define internal range(i32 -1, 1) i32 @hwloc_libxml_look_init(ptr noundef captures(none) %0, ptr noundef captures(none) %1) #1 {
  %3 = alloca i32, align 4
  %4 = alloca i32, align 4
  %5 = getelementptr inbounds nuw i8, ptr %1, i64 16
  %6 = getelementptr inbounds nuw i8, ptr %0, i64 80
  %7 = load ptr, ptr %6, align 8, !tbaa !14
  %8 = tail call ptr @xmlGetIntSubset(ptr noundef %7) #11
  %.not = icmp eq ptr %8, null
  br i1 %.not, label %9, label %18

9:                                                ; preds = %2
  %10 = tail call i32 @hwloc__xml_verbose() #11
  %.not36 = icmp eq i32 %10, 0
  br i1 %.not36, label %32, label %11

11:                                               ; preds = %9
  %12 = load ptr, ptr @stderr, align 8, !tbaa !16
  %13 = getelementptr inbounds nuw i8, ptr %1, i64 8
  %14 = load ptr, ptr %13, align 8, !tbaa !18
  %15 = getelementptr inbounds nuw i8, ptr %14, i64 72
  %16 = load ptr, ptr %15, align 8, !tbaa !22
  %17 = tail call i32 (ptr, ptr, ...) @fprintf(ptr noundef %12, ptr noundef nonnull @.str.4, ptr noundef %16) #13
  br label %32

18:                                               ; preds = %2
  %19 = getelementptr inbounds nuw i8, ptr %8, i64 112
  %20 = load ptr, ptr %19, align 8, !tbaa !23
  %21 = tail call i32 @strcmp(ptr noundef nonnull dereferenceable(1) %20, ptr noundef nonnull dereferenceable(11) @.str.5) #14
  %.not37 = icmp eq i32 %21, 0
  br i1 %.not37, label %32, label %22

22:                                               ; preds = %18
  %23 = tail call i32 @hwloc__xml_verbose() #11
  %.not38 = icmp eq i32 %23, 0
  br i1 %.not38, label %32, label %24

24:                                               ; preds = %22
  %25 = load ptr, ptr @stderr, align 8, !tbaa !16
  %26 = getelementptr inbounds nuw i8, ptr %1, i64 8
  %27 = load ptr, ptr %26, align 8, !tbaa !18
  %28 = getelementptr inbounds nuw i8, ptr %27, i64 72
  %29 = load ptr, ptr %28, align 8, !tbaa !22
  %30 = load ptr, ptr %19, align 8, !tbaa !23
  %31 = tail call i32 (ptr, ptr, ...) @fprintf(ptr noundef %25, ptr noundef nonnull @.str.6, ptr noundef %29, ptr noundef %30, ptr noundef nonnull @.str.5) #13
  br label %32

32:                                               ; preds = %18, %24, %22, %9, %11
  %33 = load ptr, ptr %6, align 8, !tbaa !14
  %34 = tail call ptr @xmlDocGetRootElement(ptr noundef %33) #11
  %35 = getelementptr inbounds nuw i8, ptr %34, i64 16
  %36 = load ptr, ptr %35, align 8, !tbaa !27
  %37 = tail call i32 @strcmp(ptr noundef nonnull dereferenceable(1) %36, ptr noundef nonnull dereferenceable(5) @.str.7) #14
  %.not39 = icmp eq i32 %37, 0
  br i1 %.not39, label %38, label %41

38:                                               ; preds = %32
  %39 = getelementptr inbounds nuw i8, ptr %0, i64 88
  store i32 0, ptr %39, align 8, !tbaa !41
  %40 = getelementptr inbounds nuw i8, ptr %0, i64 92
  store i32 9, ptr %40, align 4, !tbaa !42
  br label %67

41:                                               ; preds = %32
  %42 = tail call i32 @strcmp(ptr noundef nonnull dereferenceable(1) %36, ptr noundef nonnull dereferenceable(9) @.str.8) #14
  %.not40 = icmp eq i32 %42, 0
  br i1 %.not40, label %43, label %57

43:                                               ; preds = %41
  call void @llvm.lifetime.start.p0(i64 4, ptr nonnull %3) #11
  call void @llvm.lifetime.start.p0(i64 4, ptr nonnull %4) #11
  %44 = tail call ptr @xmlGetProp(ptr noundef nonnull %34, ptr noundef nonnull @.str.9) #11
  %.not41 = icmp eq ptr %44, null
  br i1 %.not41, label %52, label %45

45:                                               ; preds = %43
  %46 = call i32 (ptr, ptr, ...) @__isoc99_sscanf(ptr noundef nonnull %44, ptr noundef nonnull @.str.10, ptr noundef nonnull %3, ptr noundef nonnull %4) #11
  %47 = icmp eq i32 %46, 2
  br i1 %47, label %48, label %52

48:                                               ; preds = %45
  %49 = load i32, ptr %3, align 4, !tbaa !7
  %50 = getelementptr inbounds nuw i8, ptr %0, i64 88
  store i32 %49, ptr %50, align 8, !tbaa !41
  %51 = load i32, ptr %4, align 4, !tbaa !7
  br label %54

52:                                               ; preds = %45, %43
  %53 = getelementptr inbounds nuw i8, ptr %0, i64 88
  store i32 1, ptr %53, align 8, !tbaa !41
  br label %54

54:                                               ; preds = %52, %48
  %.sink = phi i32 [ 0, %52 ], [ %51, %48 ]
  %55 = getelementptr inbounds nuw i8, ptr %0, i64 92
  store i32 %.sink, ptr %55, align 4, !tbaa !42
  %56 = load ptr, ptr @xmlFree, align 8, !tbaa !3
  call void %56(ptr noundef %44) #11
  call void @llvm.lifetime.end.p0(i64 4, ptr nonnull %4) #11
  call void @llvm.lifetime.end.p0(i64 4, ptr nonnull %3) #11
  br label %67

57:                                               ; preds = %41
  %58 = tail call i32 @hwloc__xml_verbose() #11
  %.not42 = icmp eq i32 %58, 0
  br i1 %.not42, label %80, label %59

59:                                               ; preds = %57
  %60 = load ptr, ptr @stderr, align 8, !tbaa !16
  %61 = getelementptr inbounds nuw i8, ptr %1, i64 8
  %62 = load ptr, ptr %61, align 8, !tbaa !18
  %63 = getelementptr inbounds nuw i8, ptr %62, i64 72
  %64 = load ptr, ptr %63, align 8, !tbaa !22
  %65 = load ptr, ptr %35, align 8, !tbaa !27
  %66 = tail call i32 (ptr, ptr, ...) @fprintf(ptr noundef %60, ptr noundef nonnull @.str.11, ptr noundef %64, ptr noundef %65) #13
  br label %80

67:                                               ; preds = %54, %38
  %68 = getelementptr inbounds nuw i8, ptr %1, i64 8
  %69 = load ptr, ptr %68, align 8, !tbaa !18
  %70 = getelementptr inbounds nuw i8, ptr %69, i64 24
  store ptr @hwloc__libxml_import_next_attr, ptr %70, align 8, !tbaa !32
  %71 = getelementptr inbounds nuw i8, ptr %69, i64 32
  store ptr @hwloc__libxml_import_find_child, ptr %71, align 8, !tbaa !33
  %72 = getelementptr inbounds nuw i8, ptr %69, i64 40
  store ptr @hwloc__libxml_import_close_tag, ptr %72, align 8, !tbaa !34
  %73 = getelementptr inbounds nuw i8, ptr %69, i64 48
  store ptr @hwloc__libxml_import_close_child, ptr %73, align 8, !tbaa !35
  %74 = getelementptr inbounds nuw i8, ptr %69, i64 56
  store ptr @hwloc__libxml_import_get_content, ptr %74, align 8, !tbaa !36
  %75 = getelementptr inbounds nuw i8, ptr %69, i64 64
  store ptr @hwloc__libxml_import_close_content, ptr %75, align 8, !tbaa !37
  store ptr null, ptr %1, align 8, !tbaa !38
  store ptr %34, ptr %5, align 8, !tbaa !39
  %76 = getelementptr inbounds nuw i8, ptr %34, i64 24
  %77 = load ptr, ptr %76, align 8, !tbaa !40
  %78 = getelementptr inbounds nuw i8, ptr %1, i64 24
  store ptr %77, ptr %78, align 8, !tbaa !39
  %79 = getelementptr inbounds nuw i8, ptr %1, i64 32
  store ptr null, ptr %79, align 8, !tbaa !39
  br label %80

80:                                               ; preds = %59, %57, %67
  %.0 = phi i32 [ 0, %67 ], [ -1, %57 ], [ -1, %59 ]
  ret i32 %.0
}